target datalayout = "e-m:e-p270:32:32-p271:32:32-p272:64:64-i64:64-i128:128-f80:128-n8:16:32:64-S128"
target triple = "x86_64-pc-linux-gnu"

%struct.SDL_AtomicInt = type { i32 }
%struct.SDL_AudioDevice = type { ptr, ptr, %struct.SDL_AtomicInt, ptr, ptr, ptr, ptr, ptr, ptr, ptr, i32, ptr, %struct.SDL_AudioSpec, i32, ptr, %struct.SDL_AudioSpec, i32, i32, %struct.SDL_AtomicInt, %struct.SDL_AtomicInt, i8, i8, ptr, ptr, ptr, i32, ptr, i8, ptr, ptr }
%struct.SDL_AudioSpec = type { i32, i32, i32 }
%struct.SDL_PrivateAudioData = type { ptr, ptr }

@ALSA_snd_pcm_writei = internal global ptr null, align 8
@ALSA_snd_pcm_recover = internal global ptr null, align 8
@ALSA_snd_strerror = internal global ptr null, align 8
@.str.119 = private unnamed_addr constant [38 x i8] c"ALSA write failed (unrecoverable): %s\00", align 1

; Function Attrs: nounwind uwtable
define internal zeroext i1 @ALSA_PlayDevice(ptr noundef %0, ptr noundef %1, i32 noundef %2) #0 {
  %4 = alloca i1, align 1
  %5 = alloca ptr, align 8
  %6 = alloca ptr, align 8
  %7 = alloca i32, align 4
  %8 = alloca ptr, align 8
  %9 = alloca i32, align 4
  %10 = alloca i64, align 8
  %11 = alloca i32, align 4
  %12 = alloca i32, align 4
  %13 = alloca i32, align 4
  store ptr %0, ptr %5, align 8
  store ptr %1, ptr %6, align 8
  store i32 %2, ptr %7, align 4
  br label %14

14:                                               ; preds = %3
  br label %15

15:                                               ; preds = %14
  call void @llvm.lifetime.start.p0(i64 8, ptr %8) #7
  %16 = load ptr, ptr %6, align 8
  store ptr %16, ptr %8, align 8
  call void @llvm.lifetime.start.p0(i64 4, ptr %9) #7
  %17 = load ptr, ptr %5, align 8
  %18 = getelementptr inbounds nuw %struct.SDL_AudioDevice, ptr %17, i32 0, i32 12
  %19 = getelementptr inbounds nuw %struct.SDL_AudioSpec, ptr %18, i32 0, i32 0
  %20 = load i32, ptr %19, align 8
  %21 = and i32 %20, 255
  %22 = udiv i32 %21, 8
  %23 = load ptr, ptr %5, align 8
  %24 = getelementptr inbounds nuw %struct.SDL_AudioDevice, ptr %23, i32 0, i32 12
  %25 = getelementptr inbounds nuw %struct.SDL_AudioSpec, ptr %24, i32 0, i32 1
  %26 = load i32, ptr %25, align 4
  %27 = mul i32 %22, %26
  store i32 %27, ptr %9, align 4
  call void @llvm.lifetime.start.p0(i64 8, ptr %10) #7
  %28 = load i32, ptr %7, align 4
  %29 = load i32, ptr %9, align 4
  %30 = sdiv i32 %28, %29
  %31 = sext i32 %30 to i64
  store i64 %31, ptr %10, align 8
  br label %32

32:                                               ; preds = %92, %90, %15
  %33 = load i64, ptr %10, align 8
  %34 = icmp ugt i64 %33, 0
  br i1 %34, label %35, label %41

35:                                               ; preds = %32
  %36 = load ptr, ptr %5, align 8
  %37 = getelementptr inbounds nuw %struct.SDL_AudioDevice, ptr %36, i32 0, i32 18
  %38 = call i32 @SDL_GetAtomicInt_REAL(ptr noundef %37)
  %39 = icmp ne i32 %38, 0
  %40 = xor i1 %39, true
  br label %41

41:                                               ; preds = %35, %32
  %42 = phi i1 [ false, %32 ], [ %40, %35 ]
  br i1 %42, label %43, label %93

43:                                               ; preds = %41
  call void @llvm.lifetime.start.p0(i64 4, ptr %11) #7
  %44 = load ptr, ptr @ALSA_snd_pcm_writei, align 8
  %45 = load ptr, ptr %5, align 8
  %46 = getelementptr inbounds nuw %struct.SDL_AudioDevice, ptr %45, i32 0, i32 28
  %47 = load ptr, ptr %46, align 8
  %48 = getelementptr inbounds nuw %struct.SDL_PrivateAudioData, ptr %47, i32 0, i32 0
  %49 = load ptr, ptr %48, align 8
  %50 = load ptr, ptr %8, align 8
  %51 = load i64, ptr %10, align 8
  %52 = call i64 %44(ptr noundef %49, ptr noundef %50, i64 noundef %51)
  %53 = trunc i64 %52 to i32
  store i32 %53, ptr %11, align 4
  br label %54

54:                                               ; preds = %43
  br label %55

55:                                               ; preds = %54
  br label %56

56:                                               ; preds = %55
  %57 = load i32, ptr %11, align 4
  %58 = icmp slt i32 %57, 0
  br i1 %58, label %59, label %79

59:                                               ; preds = %56
  br label %60

60:                                               ; preds = %59
  br label %61

61:                                               ; preds = %60
  br label %62

62:                                               ; preds = %61
  call void @llvm.lifetime.start.p0(i64 4, ptr %12) #7
  %63 = load ptr, ptr @ALSA_snd_pcm_recover, align 8
  %64 = load ptr, ptr %5, align 8
  %65 = getelementptr inbounds nuw %struct.SDL_AudioDevice, ptr %64, i32 0, i32 28
  %66 = load ptr, ptr %65, align 8
  %67 = getelementptr inbounds nuw %struct.SDL_PrivateAudioData, ptr %66, i32 0, i32 0
  %68 = load ptr, ptr %67, align 8
  %69 = load i32, ptr %11, align 4
  %70 = call i32 %63(ptr noundef %68, i32 noundef %69, i32 noundef 0)
  store i32 %70, ptr %12, align 4
  %71 = load i32, ptr %12, align 4
  %72 = icmp slt i32 %71, 0
  br i1 %72, label %73, label %77

73:                                               ; preds = %62
  %74 = load ptr, ptr @ALSA_snd_strerror, align 8
  %75 = load i32, ptr %11, align 4
  %76 = call ptr %74(i32 noundef %75)
  call void (i32, ptr, ...) @SDL_LogError_REAL(i32 noundef 4, ptr noundef @.str.119, ptr noundef %76)
  store i1 false, ptr %4, align 1
  store i32 1, ptr %13, align 4
  br label %78

77:                                               ; preds = %62
  store i32 4, ptr %13, align 4
  br label %78, !llvm.loop !7

78:                                               ; preds = %77, %73
  call void @llvm.lifetime.end.p0(i64 4, ptr %12) #7
  br label %90

79:                                               ; preds = %56
  %80 = load i32, ptr %11, align 4
  %81 = load i32, ptr %9, align 4
  %82 = mul nsw i32 %80, %81
  %83 = load ptr, ptr %8, align 8
  %84 = sext i32 %82 to i64
  %85 = getelementptr inbounds i8, ptr %83, i64 %84
  store ptr %85, ptr %8, align 8
  %86 = load i32, ptr %11, align 4
  %87 = sext i32 %86 to i64
  %88 = load i64, ptr %10, align 8
  %89 = sub i64 %88, %87
  store i64 %89, ptr %10, align 8
  store i32 0, ptr %13, align 4
  br label %90

90:                                               ; preds = %79, %78
  call void @llvm.lifetime.end.p0(i64 4, ptr %11) #7
  %91 = load i32, ptr %13, align 4
  switch i32 %91, label %94 [
    i32 0, label %92
    i32 4, label %32
  ]

92:                                               ; preds = %90
  br label %32, !llvm.loop !7

93:                                               ; preds = %41
  store i1 true, ptr %4, align 1
  store i32 1, ptr %13, align 4
  br label %94

94:                                               ; preds = %93, %90
  call void @llvm.lifetime.end.p0(i64 8, ptr %10) #7
  call void @llvm.lifetime.end.p0(i64 4, ptr %9) #7
  call void @llvm.lifetime.end.p0(i64 8, ptr %8) #7
  %95 = load i1, ptr %4, align 1
  ret i1 %95
}