; Function Attrs: nounwind uwtable
define internal noundef zeroext i1 @ALSA_PlayDevice(ptr noundef %0, ptr noundef %1, i32 noundef %2) #0 {
  %4 = getelementptr inbounds nuw i8, ptr %0, i64 96
  %5 = load i32, ptr %4, align 8
  %6 = lshr i32 %5, 3
  %7 = and i32 %6, 31
  %8 = getelementptr inbounds nuw i8, ptr %0, i64 100
  %9 = load i32, ptr %8, align 4
  %10 = mul i32 %7, %9
  %11 = sdiv i32 %2, %10
  %.not33 = icmp eq i32 %11, 0
  br i1 %.not33, label %.critedge, label %.lr.ph

.lr.ph:                                           ; preds = %3
  %12 = sext i32 %11 to i64
  %13 = getelementptr inbounds nuw i8, ptr %0, i64 140
  %14 = getelementptr inbounds nuw i8, ptr %0, i64 200
  br label %15

15:                                               ; preds = %.lr.ph, %38
  %.02335 = phi ptr [ %1, %.lr.ph ], [ %.124, %38 ]
  %.02534 = phi i64 [ %12, %.lr.ph ], [ %.126, %38 ]
  %16 = tail call i32 @SDL_GetAtomicInt_REAL(ptr noundef nonnull %13) #8
  %.not29 = icmp eq i32 %16, 0
  br i1 %.not29, label %17, label %.critedge

17:                                               ; preds = %15
  %18 = load ptr, ptr @ALSA_snd_pcm_writei, align 8
  %19 = load ptr, ptr %14, align 8
  %20 = load ptr, ptr %19, align 8
  %21 = tail call i64 %18(ptr noundef %20, ptr noundef %.02335, i64 noundef %.02534) #8
  %22 = trunc i64 %21 to i32
  %23 = icmp slt i32 %22, 0
  br i1 %23, label %24, label %32

24:                                               ; preds = %17
  %25 = load ptr, ptr @ALSA_snd_pcm_recover, align 8
  %26 = load ptr, ptr %14, align 8
  %27 = load ptr, ptr %26, align 8
  %28 = tail call i32 %25(ptr noundef %27, i32 noundef %22, i32 noundef 0) #8
  %29 = icmp slt i32 %28, 0
  br i1 %29, label %.thread, label %38, !llvm.loop !9

.thread:                                          ; preds = %24
  %30 = load ptr, ptr @ALSA_snd_strerror, align 8
  %31 = tail call ptr %30(i32 noundef %22) #8
  tail call void (i32, ptr, ...) @SDL_LogError_REAL(i32 noundef 4, ptr noundef nonnull @.str.119, ptr noundef %31) #8
  br label %.critedge

32:                                               ; preds = %17
  %33 = mul nsw i32 %10, %22
  %34 = sext i32 %33 to i64
  %35 = getelementptr inbounds i8, ptr %.02335, i64 %34
  %36 = and i64 %21, 2147483647
  %37 = sub i64 %.02534, %36
  br label %38

38:                                               ; preds = %24, %32
  %.126 = phi i64 [ %37, %32 ], [ %.02534, %24 ]
  %.124 = phi ptr [ %35, %32 ], [ %.02335, %24 ]
  %.not = icmp eq i64 %.126, 0
  br i1 %.not, label %.critedge, label %15

.critedge:                                        ; preds = %38, %15, %3, %.thread
  %.3 = phi i1 [ false, %.thread ], [ true, %3 ], [ true, %15 ], [ true, %38 ]
  ret i1 %.3
}